Certificate:
    Data:
        Version: 3 (0x2)
        Serial Number:
            72:9a:c1:f3:5b:b8:35:51:67:83:87:26:f2:4d:a5:90
        Signature Algorithm: sha256WithRSAEncryption
        Issuer: CN=Easy-RSA CA
        Validity
            Not Before: May 19 11:39:02 2024 GMT
            Not After : May 17 11:39:02 2034 GMT
        Subject: CN=client
        Subject Public Key Info:
            Public Key Algorithm: rsaEncryption
                Public-Key: (2048 bit)
                Modulus:
                    00:b4:43:c1:7e:bc:70:dc:1f:cc:96:4e:bb:b5:1a:
                    65:d5:f9:71:7a:83:5f:98:8b:c5:bf:b3:01:7c:94:
                    4c:79:be:19:47:bb:28:55:c9:bb:cf:de:d0:7b:3b:
                    5b:31:0f:6f:d0:2a:04:cd:d1:b3:c9:2c:fc:d9:e0:
                    7e:bc:93:a1:eb:52:a3:6b:f5:dd:a4:1a:b6:06:fc:
                    ef:d6:0e:5c:68:3e:94:e4:fb:d0:b6:dd:5d:f5:de:
                    f0:60:3c:6a:96:aa:3b:87:70:a5:92:39:f9:45:c6:
                    b6:b5:79:11:a2:e2:3c:79:18:0e:a3:a0:54:e7:bd:
                    0c:9a:63:1f:ea:77:58:24:a6:bd:c1:54:a9:ed:b2:
                    ab:0c:b4:03:cc:2b:74:1b:36:9d:eb:47:c1:c6:76:
                    bb:27:65:45:be:b3:2a:4d:9e:6c:d0:47:10:e2:48:
                    f1:e9:8b:4d:31:fa:89:ff:1c:4b:8a:f4:e4:e5:15:
                    9a:61:59:49:19:d6:71:da:dd:ec:64:6d:fe:a3:38:
                    6a:fc:d5:91:29:41:b2:44:23:04:f2:66:63:97:dd:
                    85:f8:ec:22:af:3e:13:11:6b:98:36:4a:b5:9a:16:
                    a8:f0:b0:68:01:83:a6:d3:60:aa:3a:ac:da:9c:91:
                    91:86:f0:07:27:60:9d:2f:64:9e:3a:fd:90:d7:92:
                    c6:2f
                Exponent: 65537 (0x10001)
        X509v3 extensions:
            X509v3 Basic Constraints: 
                CA:FALSE
            X509v3 Subject Key Identifier: 
                A9:F5:DB:D8:82:13:98:43:BA:BA:10:A1:9E:B6:0B:67:FD:1E:7E:DF
            X509v3 Authority Key Identifier: 
                keyid:BC:22:91:0A:8D:06:1F:FF:44:4F:2D:F7:5C:92:6E:67:01:EE:17:D7
                DirName:/CN=Easy-RSA CA
                serial:51:16:79:F1:7F:B3:91:F2:11:18:B1:70:C5:B0:22:89:C0:F5:FC:36
            X509v3 Extended Key Usage: 
                TLS Web Client Authentication
            X509v3 Key Usage: 
                Digital Signature
    Signature Algorithm: sha256WithRSAEncryption
    Signature Value:
        2c:9c:b3:b3:92:93:88:14:1b:da:44:cf:28:44:91:1b:ab:07:
        a4:ad:6e:ed:69:f6:ee:b5:b2:9b:59:4a:76:e8:90:df:69:94:
        05:35:4f:17:f3:43:28:97:4e:5f:b7:e5:bd:d0:69:ab:a7:58:
        a5:3a:5a:22:e0:64:75:9f:74:44:1c:ce:86:a8:e1:7a:87:da:
        6f:d6:39:62:ef:56:00:88:1c:87:ec:5f:ed:9b:2a:32:77:fa:
        72:65:76:da:e4:f8:39:79:3f:fd:94:cd:d7:e4:59:3e:dd:38:
        cb:9a:c6:2b:f8:5e:2e:94:5f:8b:b0:e6:d1:98:9b:51:9a:57:
        f3:e0:30:7f:ab:40:a3:fc:5a:ff:a7:d3:d3:26:d9:b8:1c:54:
        00:6e:53:75:83:b8:32:47:c1:25:fc:b0:dd:dd:6c:f9:58:7b:
        00:4e:cf:da:f7:be:6c:9c:a8:a0:57:b7:d3:3e:8a:f3:7f:93:
        87:45:91:72:64:53:fb:19:c2:36:5d:24:76:2e:6b:4c:eb:06:
        3d:8b:26:66:8a:38:06:41:fa:d1:75:e7:24:a8:4c:cd:ab:b1:
        b6:b7:42:f3:65:1c:6e:58:72:e2:10:b6:8e:a0:94:db:da:d3:
        7d:c5:ac:51:99:e3:dc:79:42:4d:65:a0:09:00:07:e6:a3:26:
        a6:54:b5:e1
-----BEGIN CERTIFICATE-----
MIIDVDCCAjygAwIBAgIQcprB81u4NVFng4cm8k2lkDANBgkqhkiG9w0BAQsFADAW
MRQwEgYDVQQDDAtFYXN5LVJTQSBDQTAeFw0yNDA1MTkxMTM5MDJaFw0zNDA1MTcx
MTM5MDJaMBExDzANBgNVBAMMBmNsaWVudDCCASIwDQYJKoZIhvcNAQEBBQADggEP
ADCCAQoCggEBALRDwX68cNwfzJZOu7UaZdX5cXqDX5iLxb+zAXyUTHm+GUe7KFXJ
u8/e0Hs7WzEPb9AqBM3Rs8ks/NngfryToetSo2v13aQatgb879YOXGg+lOT70Lbd
XfXe8GA8apaqO4dwpZI5+UXGtrV5EaLiPHkYDqOgVOe9DJpjH+p3WCSmvcFUqe2y
qwy0A8wrdBs2netHwcZ2uydlRb6zKk2ebNBHEOJI8emLTTH6if8cS4r05OUVmmFZ
SRnWcdrd7GRt/qM4avzVkSlBskQjBPJmY5fdhfjsIq8+ExFrmDZKtZoWqPCwaAGD
ptNgqjqs2pyRkYbwBydgnS9knjr9kNeSxi8CAwEAAaOBojCBnzAJBgNVHRMEAjAA
MB0GA1UdDgQWBBSp9dvYghOYQ7q6EKGetgtn/R5+3zBRBgNVHSMESjBIgBS8IpEK
jQYf/0RPLfdckm5nAe4X16EapBgwFjEUMBIGA1UEAwwLRWFzeS1SU0EgQ0GCFFEW
efF/s5HyERixcMWwIonA9fw2MBMGA1UdJQQMMAoGCCsGAQUFBwMCMAsGA1UdDwQE
AwIHgDANBgkqhkiG9w0BAQsFAAOCAQEALJyzs5KTiBQb2kTPKESRG6sHpK1u7Wn2
7rWym1lKduiQ32mUBTVPF/NDKJdOX7flvdBpq6dYpTpaIuBkdZ90RBzOhqjheofa
b9Y5Yu9WAIgch+xf7ZsqMnf6cmV22uT4OXk//ZTN1+RZPt04y5rGK/heLpRfi7Dm
0ZibUZpX8+Awf6tAo/xa/6fT0ybZuBxUAG5TdYO4MkfBJfyw3d1s+Vh7AE7P2ve+
bJyooFe30z6K83+Th0WRcmRT+xnCNl0kdi5rTOsGPYsmZoo4BkH60XXnJKhMzaux
trdC82Ucblhy4hC2jqCU29rTfcWsUZnj3HlCTWWgCQAH5qMmplS14Q==
-----END CERTIFICATE-----
